target datalayout = "e-m:e-p270:32:32-p271:32:32-p272:64:64-i64:64-i128:128-f80:128-n8:16:32:64-S128"
target triple = "x86_64-pc-linux-gnu"

%struct.Vec_Int_t_ = type { i32, i32, ptr }

@.str = private unnamed_addr constant [12 x i8] c"Comb-%3d : \00", align 1
@.str.1 = private unnamed_addr constant [13 x i8] c"vC[%d] = %d \00", align 1
@.str.2 = private unnamed_addr constant [2 x i8] c"\0A\00", align 1

; Function Attrs: inlinehint nounwind uwtable
define internal void @Vec_IntGrow(ptr noundef %0, i32 noundef %1) #2 {
  %3 = alloca ptr, align 8
  %4 = alloca i32, align 4
  store ptr %0, ptr %3, align 8, !tbaa !9
  store i32 %1, ptr %4, align 4, !tbaa !7
  %5 = load ptr, ptr %3, align 8, !tbaa !9
  %6 = getelementptr inbounds nuw %struct.Vec_Int_t_, ptr %5, i32 0, i32 0
  %7 = load i32, ptr %6, align 8, !tbaa !19
  %8 = load i32, ptr %4, align 4, !tbaa !7
  %9 = icmp sge i32 %7, %8
  br i1 %9, label %10, label %11

10:                                               ; preds = %2
  br label %36

11:                                               ; preds = %2
  %12 = load ptr, ptr %3, align 8, !tbaa !9
  %13 = getelementptr inbounds nuw %struct.Vec_Int_t_, ptr %12, i32 0, i32 2
  %14 = load ptr, ptr %13, align 8, !tbaa !20
  %15 = icmp ne ptr %14, null
  br i1 %15, label %16, label %24

16:                                               ; preds = %11
  %17 = load ptr, ptr %3, align 8, !tbaa !9
  %18 = getelementptr inbounds nuw %struct.Vec_Int_t_, ptr %17, i32 0, i32 2
  %19 = load ptr, ptr %18, align 8, !tbaa !20
  %20 = load i32, ptr %4, align 4, !tbaa !7
  %21 = sext i32 %20 to i64
  %22 = mul i64 4, %21
  %23 = call ptr @realloc(ptr noundef %19, i64 noundef %22) #11
  br label %29

24:                                               ; preds = %11
  %25 = load i32, ptr %4, align 4, !tbaa !7
  %26 = sext i32 %25 to i64
  %27 = mul i64 4, %26
  %28 = call noalias ptr @malloc(i64 noundef %27) #9
  br label %29

29:                                               ; preds = %24, %16
  %30 = phi ptr [ %23, %16 ], [ %28, %24 ]
  %31 = load ptr, ptr %3, align 8, !tbaa !9
  %32 = getelementptr inbounds nuw %struct.Vec_Int_t_, ptr %31, i32 0, i32 2
  store ptr %30, ptr %32, align 8, !tbaa !20
  %33 = load i32, ptr %4, align 4, !tbaa !7
  %34 = load ptr, ptr %3, align 8, !tbaa !9
  %35 = getelementptr inbounds nuw %struct.Vec_Int_t_, ptr %34, i32 0, i32 0
  store i32 %33, ptr %35, align 8, !tbaa !19
  br label %36

36:                                               ; preds = %29, %10
  ret void
}

; Function Attrs: inlinehint nounwind uwtable
define internal void @Vec_IntFree(ptr noundef %0) #2 {
  %2 = alloca ptr, align 8
  store ptr %0, ptr %2, align 8, !tbaa !9
  %3 = load ptr, ptr %2, align 8, !tbaa !9
  %4 = getelementptr inbounds nuw %struct.Vec_Int_t_, ptr %3, i32 0, i32 2
  %5 = load ptr, ptr %4, align 8, !tbaa !20
  %6 = icmp ne ptr %5, null
  br i1 %6, label %7, label %13

7:                                                ; preds = %1
  %8 = load ptr, ptr %2, align 8, !tbaa !9
  %9 = getelementptr inbounds nuw %struct.Vec_Int_t_, ptr %8, i32 0, i32 2
  %10 = load ptr, ptr %9, align 8, !tbaa !20
  call void @free(ptr noundef %10) #8
  %11 = load ptr, ptr %2, align 8, !tbaa !9
  %12 = getelementptr inbounds nuw %struct.Vec_Int_t_, ptr %11, i32 0, i32 2
  store ptr null, ptr %12, align 8, !tbaa !20
  br label %14

13:                                               ; preds = %1
  br label %14

14:                                               ; preds = %13, %7
  %15 = load ptr, ptr %2, align 8, !tbaa !9
  %16 = icmp ne ptr %15, null
  br i1 %16, label %17, label %19

17:                                               ; preds = %14
  %18 = load ptr, ptr %2, align 8, !tbaa !9
  call void @free(ptr noundef %18) #8
  store ptr null, ptr %2, align 8, !tbaa !9
  br label %20

19:                                               ; preds = %14
  br label %20

20:                                               ; preds = %19, %17
  ret void
}

; Function Attrs: inlinehint nounwind uwtable
define internal void @Vec_IntWriteEntry(ptr noundef %0, i32 noundef %1, i32 noundef %2) #2 {
  %4 = alloca ptr, align 8
  %5 = alloca i32, align 4
  %6 = alloca i32, align 4
  store ptr %0, ptr %4, align 8, !tbaa !9
  store i32 %1, ptr %5, align 4, !tbaa !7
  store i32 %2, ptr %6, align 4, !tbaa !7
  %7 = load i32, ptr %6, align 4, !tbaa !7
  %8 = load ptr, ptr %4, align 8, !tbaa !9
  %9 = getelementptr inbounds nuw %struct.Vec_Int_t_, ptr %8, i32 0, i32 2
  %10 = load ptr, ptr %9, align 8, !tbaa !20
  %11 = load i32, ptr %5, align 4, !tbaa !7
  %12 = sext i32 %11 to i64
  %13 = getelementptr inbounds i32, ptr %10, i64 %12
  store i32 %7, ptr %13, align 4, !tbaa !7
  ret void
}

; Function Attrs: inlinehint nounwind uwtable
define internal i32 @Vec_IntEntry(ptr noundef %0, i32 noundef %1) #2 {
  %3 = alloca ptr, align 8
  %4 = alloca i32, align 4
  store ptr %0, ptr %3, align 8, !tbaa !9
  store i32 %1, ptr %4, align 4, !tbaa !7
  %5 = load ptr, ptr %3, align 8, !tbaa !9
  %6 = getelementptr inbounds nuw %struct.Vec_Int_t_, ptr %5, i32 0, i32 2
  %7 = load ptr, ptr %6, align 8, !tbaa !20
  %8 = load i32, ptr %4, align 4, !tbaa !7
  %9 = sext i32 %8 to i64
  %10 = getelementptr inbounds i32, ptr %7, i64 %9
  %11 = load i32, ptr %10, align 4, !tbaa !7
  ret i32 %11
}

; Function Attrs: inlinehint nounwind uwtable
define internal void @Vec_IntPush(ptr noundef %0, i32 noundef %1) #2 {
  %3 = alloca ptr, align 8
  %4 = alloca i32, align 4
  store ptr %0, ptr %3, align 8, !tbaa !9
  store i32 %1, ptr %4, align 4, !tbaa !7
  %5 = load ptr, ptr %3, align 8, !tbaa !9
  %6 = getelementptr inbounds nuw %struct.Vec_Int_t_, ptr %5, i32 0, i32 1
  %7 = load i32, ptr %6, align 4, !tbaa !16
  %8 = load ptr, ptr %3, align 8, !tbaa !9
  %9 = getelementptr inbounds nuw %struct.Vec_Int_t_, ptr %8, i32 0, i32 0
  %10 = load i32, ptr %9, align 8, !tbaa !19
  %11 = icmp eq i32 %7, %10
  br i1 %11, label %12, label %26

12:                                               ; preds = %2
  %13 = load ptr, ptr %3, align 8, !tbaa !9
  %14 = getelementptr inbounds nuw %struct.Vec_Int_t_, ptr %13, i32 0, i32 0
  %15 = load i32, ptr %14, align 8, !tbaa !19
  %16 = icmp slt i32 %15, 16
  br i1 %16, label %17, label %19

17:                                               ; preds = %12
  %18 = load ptr, ptr %3, align 8, !tbaa !9
  call void @Vec_IntGrow(ptr noundef %18, i32 noundef 16)
  br label %25

19:                                               ; preds = %12
  %20 = load ptr, ptr %3, align 8, !tbaa !9
  %21 = load ptr, ptr %3, align 8, !tbaa !9
  %22 = getelementptr inbounds nuw %struct.Vec_Int_t_, ptr %21, i32 0, i32 0
  %23 = load i32, ptr %22, align 8, !tbaa !19
  %24 = mul nsw i32 2, %23
  call void @Vec_IntGrow(ptr noundef %20, i32 noundef %24)
  br label %25

25:                                               ; preds = %19, %17
  br label %26

26:                                               ; preds = %25, %2
  %27 = load i32, ptr %4, align 4, !tbaa !7
  %28 = load ptr, ptr %3, align 8, !tbaa !9
  %29 = getelementptr inbounds nuw %struct.Vec_Int_t_, ptr %28, i32 0, i32 2
  %30 = load ptr, ptr %29, align 8, !tbaa !20
  %31 = load ptr, ptr %3, align 8, !tbaa !9
  %32 = getelementptr inbounds nuw %struct.Vec_Int_t_, ptr %31, i32 0, i32 1
  %33 = load i32, ptr %32, align 4, !tbaa !16
  %34 = add nsw i32 %33, 1
  store i32 %34, ptr %32, align 4, !tbaa !16
  %35 = sext i32 %33 to i64
  %36 = getelementptr inbounds i32, ptr %30, i64 %35
  store i32 %27, ptr %36, align 4, !tbaa !7
  ret void
}

; Function Attrs: inlinehint nounwind uwtable
define internal ptr @Vec_IntAlloc(i32 noundef %0) #2 {
  %2 = alloca i32, align 4
  %3 = alloca ptr, align 8
  store i32 %0, ptr %2, align 4, !tbaa !7
  call void @llvm.lifetime.start.p0(i64 8, ptr %3) #8
  %4 = call noalias ptr @malloc(i64 noundef 16) #9
  store ptr %4, ptr %3, align 8, !tbaa !9
  %5 = load i32, ptr %2, align 4, !tbaa !7
  %6 = icmp sgt i32 %5, 0
  br i1 %6, label %7, label %11

7:                                                ; preds = %1
  %8 = load i32, ptr %2, align 4, !tbaa !7
  %9 = icmp slt i32 %8, 16
  br i1 %9, label %10, label %11

10:                                               ; preds = %7
  store i32 16, ptr %2, align 4, !tbaa !7
  br label %11

11:                                               ; preds = %10, %7, %1
  %12 = load ptr, ptr %3, align 8, !tbaa !9
  %13 = getelementptr inbounds nuw %struct.Vec_Int_t_, ptr %12, i32 0, i32 1
  store i32 0, ptr %13, align 4, !tbaa !16
  %14 = load i32, ptr %2, align 4, !tbaa !7
  %15 = load ptr, ptr %3, align 8, !tbaa !9
  %16 = getelementptr inbounds nuw %struct.Vec_Int_t_, ptr %15, i32 0, i32 0
  store i32 %14, ptr %16, align 8, !tbaa !19
  %17 = load ptr, ptr %3, align 8, !tbaa !9
  %18 = getelementptr inbounds nuw %struct.Vec_Int_t_, ptr %17, i32 0, i32 0
  %19 = load i32, ptr %18, align 8, !tbaa !19
  %20 = icmp ne i32 %19, 0
  br i1 %20, label %21, label %28

21:                                               ; preds = %11
  %22 = load ptr, ptr %3, align 8, !tbaa !9
  %23 = getelementptr inbounds nuw %struct.Vec_Int_t_, ptr %22, i32 0, i32 0
  %24 = load i32, ptr %23, align 8, !tbaa !19
  %25 = sext i32 %24 to i64
  %26 = mul i64 4, %25
  %27 = call noalias ptr @malloc(i64 noundef %26) #9
  br label %29

28:                                               ; preds = %11
  br label %29

29:                                               ; preds = %28, %21
  %30 = phi ptr [ %27, %21 ], [ null, %28 ]
  %31 = load ptr, ptr %3, align 8, !tbaa !9
  %32 = getelementptr inbounds nuw %struct.Vec_Int_t_, ptr %31, i32 0, i32 2
  store ptr %30, ptr %32, align 8, !tbaa !20
  %33 = load ptr, ptr %3, align 8, !tbaa !9
  call void @llvm.lifetime.end.p0(i64 8, ptr %3) #8
  ret ptr %33
}

; Function Attrs: nounwind uwtable
define void @listCombination(i32 noundef %0, i32 noundef %1) #0 {
  %3 = alloca i32, align 4
  %4 = alloca i32, align 4
  %5 = alloca ptr, align 8
  %6 = alloca i32, align 4
  %7 = alloca i32, align 4
  %8 = alloca i32, align 4
  store i32 %0, ptr %3, align 4, !tbaa !7
  store i32 %1, ptr %4, align 4, !tbaa !7
  call void @llvm.lifetime.start.p0(i64 8, ptr %5) #8
  call void @llvm.lifetime.start.p0(i64 4, ptr %6) #8
  call void @llvm.lifetime.start.p0(i64 4, ptr %7) #8
  call void @llvm.lifetime.start.p0(i64 4, ptr %8) #8
  store i32 0, ptr %8, align 4, !tbaa !7
  %9 = load i32, ptr %4, align 4, !tbaa !7
  %10 = add nsw i32 %9, 3
  %11 = call ptr @Vec_IntAlloc(i32 noundef %10)
  store ptr %11, ptr %5, align 8, !tbaa !9
  store i32 -1, ptr %6, align 4, !tbaa !7
  br label %12

12:                                               ; preds = %19, %2
  %13 = load i32, ptr %6, align 4, !tbaa !7
  %14 = load i32, ptr %4, align 4, !tbaa !7
  %15 = icmp slt i32 %13, %14
  br i1 %15, label %16, label %22

16:                                               ; preds = %12
  %17 = load ptr, ptr %5, align 8, !tbaa !9
  %18 = load i32, ptr %6, align 4, !tbaa !7
  call void @Vec_IntPush(ptr noundef %17, i32 noundef %18)
  br label %19

19:                                               ; preds = %16
  %20 = load i32, ptr %6, align 4, !tbaa !7
  %21 = add nsw i32 %20, 1
  store i32 %21, ptr %6, align 4, !tbaa !7
  br label %12, !llvm.loop !12

22:                                               ; preds = %12
  %23 = load ptr, ptr %5, align 8, !tbaa !9
  %24 = load i32, ptr %3, align 4, !tbaa !7
  call void @Vec_IntPush(ptr noundef %23, i32 noundef %24)
  %25 = load ptr, ptr %5, align 8, !tbaa !9
  call void @Vec_IntPush(ptr noundef %25, i32 noundef 0)
  br label %26

26:                                               ; preds = %68, %22
  br label %27

27:                                               ; preds = %26
  %28 = load i32, ptr %8, align 4, !tbaa !7
  %29 = add nsw i32 %28, 1
  store i32 %29, ptr %8, align 4, !tbaa !7
  %30 = call i32 (ptr, ...) @printf(ptr noundef @.str, i32 noundef %29)
  %31 = load i32, ptr %4, align 4, !tbaa !7
  store i32 %31, ptr %6, align 4, !tbaa !7
  br label %32

32:                                               ; preds = %41, %27
  %33 = load i32, ptr %6, align 4, !tbaa !7
  %34 = icmp sgt i32 %33, 0
  br i1 %34, label %35, label %44

35:                                               ; preds = %32
  %36 = load i32, ptr %6, align 4, !tbaa !7
  %37 = load ptr, ptr %5, align 8, !tbaa !9
  %38 = load i32, ptr %6, align 4, !tbaa !7
  %39 = call i32 @Vec_IntEntry(ptr noundef %37, i32 noundef %38)
  %40 = call i32 (ptr, ...) @printf(ptr noundef @.str.1, i32 noundef %36, i32 noundef %39)
  br label %41

41:                                               ; preds = %35
  %42 = load i32, ptr %6, align 4, !tbaa !7
  %43 = add nsw i32 %42, -1
  store i32 %43, ptr %6, align 4, !tbaa !7
  br label %32, !llvm.loop !14

44:                                               ; preds = %32
  %45 = call i32 (ptr, ...) @printf(ptr noundef @.str.2)
  store i32 1, ptr %7, align 4, !tbaa !7
  br label %46

46:                                               ; preds = %56, %44
  %47 = load ptr, ptr %5, align 8, !tbaa !9
  %48 = load i32, ptr %7, align 4, !tbaa !7
  %49 = call i32 @Vec_IntEntry(ptr noundef %47, i32 noundef %48)
  %50 = add nsw i32 %49, 1
  %51 = load ptr, ptr %5, align 8, !tbaa !9
  %52 = load i32, ptr %7, align 4, !tbaa !7
  %53 = add nsw i32 %52, 1
  %54 = call i32 @Vec_IntEntry(ptr noundef %51, i32 noundef %53)
  %55 = icmp eq i32 %50, %54
  br i1 %55, label %56, label %63

56:                                               ; preds = %46
  %57 = load ptr, ptr %5, align 8, !tbaa !9
  %58 = load i32, ptr %7, align 4, !tbaa !7
  %59 = load i32, ptr %7, align 4, !tbaa !7
  %60 = sub nsw i32 %59, 1
  call void @Vec_IntWriteEntry(ptr noundef %57, i32 noundef %58, i32 noundef %60)
  %61 = load i32, ptr %7, align 4, !tbaa !7
  %62 = add nsw i32 %61, 1
  store i32 %62, ptr %7, align 4, !tbaa !7
  br label %46, !llvm.loop !15

63:                                               ; preds = %46
  %64 = load i32, ptr %7, align 4, !tbaa !7
  %65 = load i32, ptr %4, align 4, !tbaa !7
  %66 = icmp sgt i32 %64, %65
  br i1 %66, label %67, label %68

67:                                               ; preds = %63
  br label %75

68:                                               ; preds = %63
  %69 = load ptr, ptr %5, align 8, !tbaa !9
  %70 = load i32, ptr %7, align 4, !tbaa !7
  %71 = load ptr, ptr %5, align 8, !tbaa !9
  %72 = load i32, ptr %7, align 4, !tbaa !7
  %73 = call i32 @Vec_IntEntry(ptr noundef %71, i32 noundef %72)
  %74 = add nsw i32 %73, 1
  call void @Vec_IntWriteEntry(ptr noundef %69, i32 noundef %70, i32 noundef %74)
  br label %26

75:                                               ; preds = %67
  %76 = load ptr, ptr %5, align 8, !tbaa !9
  call void @Vec_IntFree(ptr noundef %76)
  call void @llvm.lifetime.end.p0(i64 4, ptr %8) #8
  call void @llvm.lifetime.end.p0(i64 4, ptr %7) #8
  call void @llvm.lifetime.end.p0(i64 4, ptr %6) #8
  call void @llvm.lifetime.end.p0(i64 8, ptr %5) #8
  ret void
}