; Function Attrs: nounwind uwtable
define void @listCombination(i32 noundef %0, i32 noundef %1) local_unnamed_addr #1 {
  %3 = add nsw i32 %1, 3
  %4 = tail call noalias dereferenceable_or_null(16) ptr @malloc(i64 noundef 16) #9
  %5 = add nsw i32 %1, 2
  %or.cond.i = icmp ult i32 %5, 15
  %spec.store.select.i = select i1 %or.cond.i, i32 16, i32 %3
  %6 = getelementptr inbounds nuw i8, ptr %4, i64 4
  store i32 0, ptr %6, align 4, !tbaa !3
  store i32 %spec.store.select.i, ptr %4, align 8, !tbaa !10
  %.not.i = icmp eq i32 %spec.store.select.i, 0
  br i1 %.not.i, label %Vec_IntAlloc.exit, label %7

7:                                                ; preds = %2
  %8 = sext i32 %spec.store.select.i to i64
  %9 = shl nsw i64 %8, 2
  %10 = tail call noalias ptr @malloc(i64 noundef %9) #9
  br label %Vec_IntAlloc.exit

Vec_IntAlloc.exit:                                ; preds = %2, %7
  %11 = phi ptr [ %10, %7 ], [ null, %2 ]
  %12 = getelementptr inbounds nuw i8, ptr %4, i64 8
  store ptr %11, ptr %12, align 8, !tbaa !11
  %13 = icmp sgt i32 %1, -1
  br i1 %13, label %.lr.ph, label %._crit_edge

.lr.ph:                                           ; preds = %Vec_IntAlloc.exit, %Vec_IntPush.exit
  %14 = phi ptr [ %.pre.i80, %Vec_IntPush.exit ], [ %11, %Vec_IntAlloc.exit ]
  %.03154 = phi i32 [ %36, %Vec_IntPush.exit ], [ -1, %Vec_IntAlloc.exit ]
  %15 = load i32, ptr %6, align 4, !tbaa !3
  %16 = load i32, ptr %4, align 8, !tbaa !10
  %17 = icmp eq i32 %15, %16
  br i1 %17, label %18, label %Vec_IntPush.exit

18:                                               ; preds = %.lr.ph
  %19 = icmp slt i32 %15, 16
  br i1 %19, label %20, label %25

20:                                               ; preds = %18
  %.not9.i.i = icmp eq ptr %14, null
  br i1 %.not9.i.i, label %23, label %21

21:                                               ; preds = %20
  %22 = tail call dereferenceable_or_null(64) ptr @realloc(ptr noundef nonnull %14, i64 noundef 64) #10
  br label %Vec_IntPush.exit.sink.split

23:                                               ; preds = %20
  %24 = tail call noalias dereferenceable_or_null(64) ptr @malloc(i64 noundef 64) #9
  br label %Vec_IntPush.exit.sink.split

25:                                               ; preds = %18
  %26 = shl nuw nsw i32 %15, 1
  %.not9.i9.i = icmp eq ptr %14, null
  %27 = zext nneg i32 %26 to i64
  %28 = shl nuw nsw i64 %27, 2
  br i1 %.not9.i9.i, label %31, label %29

29:                                               ; preds = %25
  %30 = tail call ptr @realloc(ptr noundef nonnull %14, i64 noundef %28) #10
  br label %Vec_IntPush.exit.sink.split

31:                                               ; preds = %25
  %32 = tail call noalias ptr @malloc(i64 noundef %28) #9
  br label %Vec_IntPush.exit.sink.split

Vec_IntPush.exit.sink.split:                      ; preds = %29, %31, %21, %23
  %.sink92 = phi ptr [ %22, %21 ], [ %24, %23 ], [ %30, %29 ], [ %32, %31 ]
  %.sink = phi i32 [ 16, %21 ], [ 16, %23 ], [ %26, %29 ], [ %26, %31 ]
  store ptr %.sink92, ptr %12, align 8, !tbaa !11
  store i32 %.sink, ptr %4, align 8, !tbaa !10
  br label %Vec_IntPush.exit

Vec_IntPush.exit:                                 ; preds = %Vec_IntPush.exit.sink.split, %.lr.ph
  %.pre.i80 = phi ptr [ %14, %.lr.ph ], [ %.sink92, %Vec_IntPush.exit.sink.split ]
  %33 = add nsw i32 %15, 1
  store i32 %33, ptr %6, align 4, !tbaa !3
  %34 = sext i32 %15 to i64
  %35 = getelementptr inbounds i32, ptr %.pre.i80, i64 %34
  store i32 %.03154, ptr %35, align 4, !tbaa !12
  %36 = add nsw i32 %.03154, 1
  %exitcond.not = icmp eq i32 %36, %1
  br i1 %exitcond.not, label %._crit_edge.loopexit, label %.lr.ph, !llvm.loop !13

._crit_edge.loopexit:                             ; preds = %Vec_IntPush.exit
  %.pre = load i32, ptr %6, align 4, !tbaa !3
  %.pre82 = load i32, ptr %4, align 8, !tbaa !10
  br label %._crit_edge

._crit_edge:                                      ; preds = %._crit_edge.loopexit, %Vec_IntAlloc.exit
  %37 = phi ptr [ %.pre.i80, %._crit_edge.loopexit ], [ %11, %Vec_IntAlloc.exit ]
  %38 = phi i32 [ %.pre82, %._crit_edge.loopexit ], [ %spec.store.select.i, %Vec_IntAlloc.exit ]
  %39 = phi i32 [ %.pre, %._crit_edge.loopexit ], [ 0, %Vec_IntAlloc.exit ]
  %40 = icmp eq i32 %39, %38
  br i1 %40, label %41, label %Vec_IntPush.exit44

41:                                               ; preds = %._crit_edge
  %42 = icmp slt i32 %38, 16
  br i1 %42, label %43, label %48

43:                                               ; preds = %41
  %.not9.i.i42 = icmp eq ptr %37, null
  br i1 %.not9.i.i42, label %46, label %44

44:                                               ; preds = %43
  %45 = tail call dereferenceable_or_null(64) ptr @realloc(ptr noundef nonnull %37, i64 noundef 64) #10
  br label %Vec_IntPush.exit44.sink.split

46:                                               ; preds = %43
  %47 = tail call noalias dereferenceable_or_null(64) ptr @malloc(i64 noundef 64) #9
  br label %Vec_IntPush.exit44.sink.split

48:                                               ; preds = %41
  %49 = shl nuw nsw i32 %38, 1
  %.not9.i9.i41 = icmp eq ptr %37, null
  %50 = zext nneg i32 %49 to i64
  %51 = shl nuw nsw i64 %50, 2
  br i1 %.not9.i9.i41, label %54, label %52

52:                                               ; preds = %48
  %53 = tail call ptr @realloc(ptr noundef nonnull %37, i64 noundef %51) #10
  br label %Vec_IntPush.exit44.sink.split

54:                                               ; preds = %48
  %55 = tail call noalias ptr @malloc(i64 noundef %51) #9
  br label %Vec_IntPush.exit44.sink.split

Vec_IntPush.exit44.sink.split:                    ; preds = %52, %54, %44, %46
  %.sink94 = phi ptr [ %45, %44 ], [ %47, %46 ], [ %53, %52 ], [ %55, %54 ]
  %.sink93 = phi i32 [ 16, %44 ], [ 16, %46 ], [ %49, %52 ], [ %49, %54 ]
  store ptr %.sink94, ptr %12, align 8, !tbaa !11
  store i32 %.sink93, ptr %4, align 8, !tbaa !10
  br label %Vec_IntPush.exit44

Vec_IntPush.exit44:                               ; preds = %Vec_IntPush.exit44.sink.split, %._crit_edge
  %56 = phi ptr [ %37, %._crit_edge ], [ %.sink94, %Vec_IntPush.exit44.sink.split ]
  %57 = add nsw i32 %39, 1
  store i32 %57, ptr %6, align 4, !tbaa !3
  %58 = sext i32 %39 to i64
  %59 = getelementptr inbounds i32, ptr %56, i64 %58
  store i32 %0, ptr %59, align 4, !tbaa !12
  %60 = load i32, ptr %6, align 4, !tbaa !3
  %61 = load i32, ptr %4, align 8, !tbaa !10
  %62 = icmp eq i32 %60, %61
  br i1 %62, label %Vec_IntPush.exit51.sink.split, label %Vec_IntPush.exit51

Vec_IntPush.exit51.sink.split:                    ; preds = %Vec_IntPush.exit44
  %63 = icmp slt i32 %60, 16
  %64 = shl nuw nsw i32 %60, 1
  %65 = zext nneg i32 %64 to i64
  %66 = shl nuw nsw i64 %65, 2
  %.sink97 = select i1 %63, i64 64, i64 %66
  %.sink95 = select i1 %63, i32 16, i32 %64
  %67 = tail call ptr @realloc(ptr noundef nonnull %56, i64 noundef %.sink97) #10
  store ptr %67, ptr %12, align 8, !tbaa !11
  store i32 %.sink95, ptr %4, align 8, !tbaa !10
  br label %Vec_IntPush.exit51

Vec_IntPush.exit51:                               ; preds = %Vec_IntPush.exit51.sink.split, %Vec_IntPush.exit44
  %.val33.us = phi ptr [ %56, %Vec_IntPush.exit44 ], [ %67, %Vec_IntPush.exit51.sink.split ]
  %68 = add nsw i32 %60, 1
  store i32 %68, ptr %6, align 4, !tbaa !3
  %69 = sext i32 %60 to i64
  %70 = getelementptr inbounds i32, ptr %.val33.us, i64 %69
  store i32 0, ptr %70, align 4, !tbaa !12
  %71 = icmp sgt i32 %1, 0
  br i1 %71, label %.lr.ph57.us.preheader, label %Vec_IntPush.exit51.split.preheader

Vec_IntPush.exit51.split.preheader:               ; preds = %Vec_IntPush.exit51
  %72 = getelementptr inbounds nuw i8, ptr %.val33.us, i64 4
  %73 = getelementptr inbounds nuw i8, ptr %.val33.us, i64 8
  br label %Vec_IntPush.exit51.split

.lr.ph57.us.preheader:                            ; preds = %Vec_IntPush.exit51
  %74 = zext nneg i32 %1 to i64
  %75 = getelementptr inbounds nuw i8, ptr %.val33.us, i64 4
  %76 = getelementptr inbounds nuw i8, ptr %.val33.us, i64 8
  br label %.lr.ph57.us

.lr.ph57.us:                                      ; preds = %.lr.ph57.us.preheader, %80
  %.0.us = phi i32 [ %77, %80 ], [ 0, %.lr.ph57.us.preheader ]
  %77 = add nuw nsw i32 %.0.us, 1
  %78 = tail call i32 (ptr, ...) @printf(ptr noundef nonnull dereferenceable(1) @.str, i32 noundef %77)
  br label %90

._crit_edge62.us:                                 ; preds = %.lr.ph61.us, %._crit_edge58.us
  %.030.lcssa.us = phi i32 [ 1, %._crit_edge58.us ], [ %89, %.lr.ph61.us ]
  %.lcssa53.us = phi ptr [ %75, %._crit_edge58.us ], [ %83, %.lr.ph61.us ]
  %.lcssa.us = phi i32 [ %97, %._crit_edge58.us ], [ %85, %.lr.ph61.us ]
  %79 = icmp sgt i32 %.030.lcssa.us, %1
  br i1 %79, label %Vec_IntFree.exit, label %80

80:                                               ; preds = %._crit_edge62.us
  store i32 %.lcssa.us, ptr %.lcssa53.us, align 4, !tbaa !12
  br label %.lr.ph57.us

.lr.ph61.us:                                      ; preds = %._crit_edge58.us, %.lr.ph61.us
  %indvars.iv77 = phi i64 [ %indvars.iv.next78, %.lr.ph61.us ], [ 2, %._crit_edge58.us ]
  %81 = phi ptr [ %83, %.lr.ph61.us ], [ %75, %._crit_edge58.us ]
  %.03059.us = phi i32 [ %89, %.lr.ph61.us ], [ 1, %._crit_edge58.us ]
  %82 = add nsw i32 %.03059.us, -1
  store i32 %82, ptr %81, align 4, !tbaa !12
  %83 = getelementptr inbounds nuw i32, ptr %.val33.us, i64 %indvars.iv77
  %84 = load i32, ptr %83, align 4, !tbaa !12
  %85 = add nsw i32 %84, 1
  %indvars.iv.next78 = add nuw nsw i64 %indvars.iv77, 1
  %86 = getelementptr inbounds nuw i32, ptr %.val33.us, i64 %indvars.iv.next78
  %87 = load i32, ptr %86, align 4, !tbaa !12
  %88 = icmp eq i32 %85, %87
  %89 = trunc nuw nsw i64 %indvars.iv77 to i32
  br i1 %88, label %.lr.ph61.us, label %._crit_edge62.us, !llvm.loop !15

90:                                               ; preds = %.lr.ph57.us, %90
  %indvars.iv74 = phi i64 [ %74, %.lr.ph57.us ], [ %indvars.iv.next75, %90 ]
  %91 = getelementptr inbounds nuw i32, ptr %.val33.us, i64 %indvars.iv74
  %92 = load i32, ptr %91, align 4, !tbaa !12
  %93 = trunc nuw nsw i64 %indvars.iv74 to i32
  %94 = tail call i32 (ptr, ...) @printf(ptr noundef nonnull dereferenceable(1) @.str.1, i32 noundef %93, i32 noundef %92)
  %indvars.iv.next75 = add nsw i64 %indvars.iv74, -1
  %95 = icmp sgt i64 %indvars.iv74, 1
  br i1 %95, label %90, label %._crit_edge58.us, !llvm.loop !16

._crit_edge58.us:                                 ; preds = %90
  %putchar.us = tail call i32 @putchar(i32 10)
  %96 = load i32, ptr %75, align 4, !tbaa !12
  %97 = add nsw i32 %96, 1
  %98 = load i32, ptr %76, align 4, !tbaa !12
  %99 = icmp eq i32 %97, %98
  br i1 %99, label %.lr.ph61.us, label %._crit_edge62.us

Vec_IntPush.exit51.split:                         ; preds = %Vec_IntPush.exit51.split.preheader, %116
  %.0 = phi i32 [ %100, %116 ], [ 0, %Vec_IntPush.exit51.split.preheader ]
  %100 = add nuw nsw i32 %.0, 1
  %101 = tail call i32 (ptr, ...) @printf(ptr noundef nonnull dereferenceable(1) @.str, i32 noundef %100)
  %putchar = tail call i32 @putchar(i32 10)
  %102 = load i32, ptr %72, align 4, !tbaa !12
  %103 = add nsw i32 %102, 1
  %104 = load i32, ptr %73, align 4, !tbaa !12
  %105 = icmp eq i32 %103, %104
  br i1 %105, label %.lr.ph61, label %._crit_edge62

.lr.ph61:                                         ; preds = %Vec_IntPush.exit51.split, %.lr.ph61
  %indvars.iv = phi i64 [ %indvars.iv.next, %.lr.ph61 ], [ 2, %Vec_IntPush.exit51.split ]
  %106 = phi ptr [ %108, %.lr.ph61 ], [ %72, %Vec_IntPush.exit51.split ]
  %.03059 = phi i32 [ %114, %.lr.ph61 ], [ 1, %Vec_IntPush.exit51.split ]
  %107 = add nsw i32 %.03059, -1
  store i32 %107, ptr %106, align 4, !tbaa !12
  %108 = getelementptr inbounds nuw i32, ptr %.val33.us, i64 %indvars.iv
  %109 = load i32, ptr %108, align 4, !tbaa !12
  %110 = add nsw i32 %109, 1
  %indvars.iv.next = add nuw nsw i64 %indvars.iv, 1
  %111 = getelementptr inbounds nuw i32, ptr %.val33.us, i64 %indvars.iv.next
  %112 = load i32, ptr %111, align 4, !tbaa !12
  %113 = icmp eq i32 %110, %112
  %114 = trunc nuw nsw i64 %indvars.iv to i32
  br i1 %113, label %.lr.ph61, label %._crit_edge62, !llvm.loop !15

._crit_edge62:                                    ; preds = %.lr.ph61, %Vec_IntPush.exit51.split
  %.030.lcssa = phi i32 [ 1, %Vec_IntPush.exit51.split ], [ %114, %.lr.ph61 ]
  %.lcssa53 = phi ptr [ %72, %Vec_IntPush.exit51.split ], [ %108, %.lr.ph61 ]
  %.lcssa = phi i32 [ %103, %Vec_IntPush.exit51.split ], [ %110, %.lr.ph61 ]
  %115 = icmp sgt i32 %.030.lcssa, %1
  br i1 %115, label %Vec_IntFree.exit, label %116

116:                                              ; preds = %._crit_edge62
  store i32 %.lcssa, ptr %.lcssa53, align 4, !tbaa !12
  br label %Vec_IntPush.exit51.split

Vec_IntFree.exit:                                 ; preds = %._crit_edge62, %._crit_edge62.us
  tail call void @free(ptr noundef nonnull %.val33.us) #11
  tail call void @free(ptr noundef nonnull %4) #11
  ret void
}